target datalayout = "e-m:e-p270:32:32-p271:32:32-p272:64:64-i64:64-i128:128-f80:128-n8:16:32:64-S128"
target triple = "x86_64-pc-linux-gnu"

%struct.H5HF_hdr_t = type { %struct.H5C_cache_entry_t, i32, i32, i8, i8, i8, i8, %struct.H5HF_dtable_t, i64, i64, i32, i64, i64, %struct.H5O_pline_t, i64, i32, i64, i64, i64, i64, i64, i64, i64, i64, i64, i64, i64, i32, ptr, i64, i8, i8, i8, ptr, i32, ptr, %struct.H5HF_block_iter_t, ptr, i64, i8, i8, i64, i8, i8, i8, i8 }
%struct.H5C_cache_entry_t = type { ptr, i64, i64, ptr, i8, ptr, i8, i8, i8, i8, i32, i8, i8, i8, i8, i8, i32, ptr, i32, i32, i32, i32, i32, i8, i8, ptr, ptr, ptr, ptr, ptr, ptr, i8, i32, i8, i64, ptr, i64, i64, i32, i8, i32, i32, i8, ptr, ptr, ptr }
%struct.H5HF_dtable_t = type { %struct.H5HF_dtable_cparam_t, i64, i32, i32, i32, i32, i32, i32, i32, i64, ptr, ptr, ptr, ptr }
%struct.H5HF_dtable_cparam_t = type { i32, i64, i64, i32, i32 }
%struct.H5O_pline_t = type { %struct.H5O_shared_t, i32, i64, i64, ptr }
%struct.H5O_shared_t = type { i32, ptr, i32, %union.anon }
%union.anon = type { %struct.H5O_mesg_loc_t }
%struct.H5O_mesg_loc_t = type { i32, i64 }
%struct.H5HF_block_iter_t = type { i8, ptr }
%struct.H5HF_indirect_t = type { %struct.H5C_cache_entry_t, i64, ptr, ptr, ptr, i32, i64, i64, i32, i32, i32, i32, ptr, i8, i64, ptr, ptr }

@H5HF_init_g = external global i8, align 1
@H5_libterm_g = external global i8, align 1
@.str.4 = private unnamed_addr constant [103 x i8] c"generated/home/dtcxzyw/WorkSpace/Projects/compilers/llvm-opt-benchmark/bench/hdf5/hdf5/src/H5HFcache.c\00", align 1
@H5E_HEAP_g = external global i64, align 8
@H5E_BADVALUE_g = external global i64, align 8
@__func__.H5HF__cache_iblock_notify = private unnamed_addr constant [26 x i8] c"H5HF__cache_iblock_notify\00", align 1
@H5E_CANTDEPEND_g = external global i64, align 8
@.str.31 = private unnamed_addr constant [34 x i8] c"unable to create flush dependency\00", align 1
@H5E_CANTUNDEPEND_g = external global i64, align 8
@.str.32 = private unnamed_addr constant [35 x i8] c"unable to destroy flush dependency\00", align 1
@H5E_ARGS_g = external global i64, align 8
@.str.33 = private unnamed_addr constant [35 x i8] c"unknown action from metadata cache\00", align 1

; Function Attrs: nounwind uwtable
define internal i32 @H5HF__cache_iblock_notify(i32 noundef %0, ptr noundef %1) #0 {
  %3 = alloca i32, align 4
  %4 = alloca ptr, align 8
  %5 = alloca ptr, align 8
  %6 = alloca i32, align 4
  %7 = alloca i8, align 1
  %8 = alloca ptr, align 8
  %9 = alloca i32, align 4
  store i32 %0, ptr %3, align 4, !tbaa !43
  store ptr %1, ptr %4, align 8, !tbaa !3
  call void @llvm.lifetime.start.p0(i64 8, ptr %5) #8
  %10 = load ptr, ptr %4, align 8, !tbaa !3
  store ptr %10, ptr %5, align 8, !tbaa !119
  call void @llvm.lifetime.start.p0(i64 4, ptr %6) #8
  store i32 0, ptr %6, align 4, !tbaa !43
  call void @llvm.lifetime.start.p0(i64 1, ptr %7) #8
  store i8 0, ptr %7, align 1, !tbaa !11
  %11 = load i8, ptr @H5HF_init_g, align 1, !tbaa !11, !range !13, !noundef !14
  %12 = trunc i8 %11 to i1
  br i1 %12, label %17, label %13

13:                                               ; preds = %2
  %14 = load i8, ptr @H5_libterm_g, align 1, !tbaa !11, !range !13, !noundef !14
  %15 = trunc i8 %14 to i1
  %16 = xor i1 %15, true
  br label %17

17:                                               ; preds = %13, %2
  %18 = phi i1 [ true, %2 ], [ %16, %13 ]
  %19 = xor i1 %18, true
  %20 = xor i1 %19, true
  %21 = zext i1 %20 to i32
  %22 = sext i32 %21 to i64
  %23 = call i64 @llvm.expect.i64(i64 %22, i64 1)
  %24 = icmp ne i64 %23, 0
  br i1 %24, label %25, label %159

25:                                               ; preds = %17
  %26 = load ptr, ptr %5, align 8, !tbaa !119
  %27 = getelementptr inbounds nuw %struct.H5HF_indirect_t, ptr %26, i32 0, i32 3
  %28 = load ptr, ptr %27, align 8, !tbaa !132
  %29 = icmp eq ptr %28, null
  br i1 %29, label %30, label %45

30:                                               ; preds = %25
  %31 = load ptr, ptr %5, align 8, !tbaa !119
  %32 = getelementptr inbounds nuw %struct.H5HF_indirect_t, ptr %31, i32 0, i32 14
  %33 = load i64, ptr %32, align 8, !tbaa !138
  %34 = icmp eq i64 %33, 0
  br i1 %34, label %35, label %44

35:                                               ; preds = %30
  %36 = load ptr, ptr %5, align 8, !tbaa !119
  %37 = getelementptr inbounds nuw %struct.H5HF_indirect_t, ptr %36, i32 0, i32 2
  %38 = load ptr, ptr %37, align 8, !tbaa !121
  %39 = getelementptr inbounds nuw %struct.H5HF_hdr_t, ptr %38, i32 0, i32 34
  %40 = load i32, ptr %39, align 8, !tbaa !157
  %41 = and i32 %40, 1
  %42 = icmp ne i32 %41, 0
  br i1 %42, label %43, label %44

43:                                               ; preds = %35
  br label %44

44:                                               ; preds = %43, %35, %30
  br label %67

45:                                               ; preds = %25
  call void @llvm.lifetime.start.p0(i64 8, ptr %8) #8
  %46 = load ptr, ptr %5, align 8, !tbaa !119
  %47 = getelementptr inbounds nuw %struct.H5HF_indirect_t, ptr %46, i32 0, i32 3
  %48 = load ptr, ptr %47, align 8, !tbaa !132
  store ptr %48, ptr %8, align 8, !tbaa !119
  call void @llvm.lifetime.start.p0(i64 4, ptr %9) #8
  %49 = load ptr, ptr %5, align 8, !tbaa !119
  %50 = getelementptr inbounds nuw %struct.H5HF_indirect_t, ptr %49, i32 0, i32 5
  %51 = load i32, ptr %50, align 8, !tbaa !135
  %52 = load ptr, ptr %5, align 8, !tbaa !119
  %53 = getelementptr inbounds nuw %struct.H5HF_indirect_t, ptr %52, i32 0, i32 2
  %54 = load ptr, ptr %53, align 8, !tbaa !121
  %55 = getelementptr inbounds nuw %struct.H5HF_hdr_t, ptr %54, i32 0, i32 7
  %56 = getelementptr inbounds nuw %struct.H5HF_dtable_t, ptr %55, i32 0, i32 4
  %57 = load i32, ptr %56, align 8, !tbaa !117
  %58 = load ptr, ptr %5, align 8, !tbaa !119
  %59 = getelementptr inbounds nuw %struct.H5HF_indirect_t, ptr %58, i32 0, i32 2
  %60 = load ptr, ptr %59, align 8, !tbaa !121
  %61 = getelementptr inbounds nuw %struct.H5HF_hdr_t, ptr %60, i32 0, i32 7
  %62 = getelementptr inbounds nuw %struct.H5HF_dtable_t, ptr %61, i32 0, i32 0
  %63 = getelementptr inbounds nuw %struct.H5HF_dtable_cparam_t, ptr %62, i32 0, i32 0
  %64 = load i32, ptr %63, align 8, !tbaa !118
  %65 = mul i32 %57, %64
  %66 = sub i32 %51, %65
  store i32 %66, ptr %9, align 4, !tbaa !43
  call void @llvm.lifetime.end.p0(i64 4, ptr %9) #8
  call void @llvm.lifetime.end.p0(i64 8, ptr %8) #8
  br label %67

67:                                               ; preds = %45, %44
  %68 = load i32, ptr %3, align 4, !tbaa !43
  switch i32 %68, label %138 [
    i32 0, label %69
    i32 1, label %69
    i32 2, label %102
    i32 4, label %102
    i32 5, label %102
    i32 6, label %102
    i32 7, label %102
    i32 8, label %102
    i32 9, label %102
    i32 3, label %103
  ]

69:                                               ; preds = %67, %67
  %70 = load ptr, ptr %5, align 8, !tbaa !119
  %71 = getelementptr inbounds nuw %struct.H5HF_indirect_t, ptr %70, i32 0, i32 4
  %72 = load ptr, ptr %71, align 8, !tbaa !133
  %73 = icmp ne ptr %72, null
  br i1 %73, label %74, label %101

74:                                               ; preds = %69
  %75 = load ptr, ptr %5, align 8, !tbaa !119
  %76 = getelementptr inbounds nuw %struct.H5HF_indirect_t, ptr %75, i32 0, i32 4
  %77 = load ptr, ptr %76, align 8, !tbaa !133
  %78 = load ptr, ptr %5, align 8, !tbaa !119
  %79 = call i32 @H5AC_create_flush_dependency(ptr noundef %77, ptr noundef %78)
  %80 = icmp slt i32 %79, 0
  br i1 %80, label %81, label %100

81:                                               ; preds = %74
  br label %82

82:                                               ; preds = %81
  br label %83

83:                                               ; preds = %82
  br label %84

84:                                               ; preds = %83
  %85 = load i64, ptr @H5E_HEAP_g, align 8, !tbaa !40
  %86 = load i64, ptr @H5E_CANTDEPEND_g, align 8, !tbaa !40
  %87 = call i32 (ptr, ptr, i32, i64, i64, ptr, ...) @H5E_printf_stack(ptr noundef @.str.4, ptr noundef @__func__.H5HF__cache_iblock_notify, i32 noundef 1411, i64 noundef %85, i64 noundef %86, ptr noundef @.str.31)
  br label %88

88:                                               ; preds = %84
  br label %89

89:                                               ; preds = %88
  store i8 1, ptr %7, align 1, !tbaa !11
  %90 = load i8, ptr %7, align 1, !tbaa !11, !range !13, !noundef !14
  %91 = trunc i8 %90 to i1
  %92 = zext i1 %91 to i8
  store i8 %92, ptr %7, align 1, !tbaa !11
  br label %93

93:                                               ; preds = %89
  br label %94

94:                                               ; preds = %93
  br label %95

95:                                               ; preds = %94
  store i32 -1, ptr %6, align 4, !tbaa !43
  br label %158

96:                                               ; No predecessors!
  br label %97

97:                                               ; preds = %96
  br label %98

98:                                               ; preds = %97
  br label %99

99:                                               ; preds = %98
  br label %100

100:                                              ; preds = %99, %74
  br label %101

101:                                              ; preds = %100, %69
  br label %157

102:                                              ; preds = %67, %67, %67, %67, %67, %67, %67
  br label %157

103:                                              ; preds = %67
  %104 = load ptr, ptr %5, align 8, !tbaa !119
  %105 = getelementptr inbounds nuw %struct.H5HF_indirect_t, ptr %104, i32 0, i32 4
  %106 = load ptr, ptr %105, align 8, !tbaa !133
  %107 = icmp ne ptr %106, null
  br i1 %107, label %108, label %137

108:                                              ; preds = %103
  %109 = load ptr, ptr %5, align 8, !tbaa !119
  %110 = getelementptr inbounds nuw %struct.H5HF_indirect_t, ptr %109, i32 0, i32 4
  %111 = load ptr, ptr %110, align 8, !tbaa !133
  %112 = load ptr, ptr %5, align 8, !tbaa !119
  %113 = call i32 @H5AC_destroy_flush_dependency(ptr noundef %111, ptr noundef %112)
  %114 = icmp slt i32 %113, 0
  br i1 %114, label %115, label %134

115:                                              ; preds = %108
  br label %116

116:                                              ; preds = %115
  br label %117

117:                                              ; preds = %116
  br label %118

118:                                              ; preds = %117
  %119 = load i64, ptr @H5E_HEAP_g, align 8, !tbaa !40
  %120 = load i64, ptr @H5E_CANTUNDEPEND_g, align 8, !tbaa !40
  %121 = call i32 (ptr, ptr, i32, i64, i64, ptr, ...) @H5E_printf_stack(ptr noundef @.str.4, ptr noundef @__func__.H5HF__cache_iblock_notify, i32 noundef 1428, i64 noundef %119, i64 noundef %120, ptr noundef @.str.32)
  br label %122

122:                                              ; preds = %118
  br label %123

123:                                              ; preds = %122
  store i8 1, ptr %7, align 1, !tbaa !11
  %124 = load i8, ptr %7, align 1, !tbaa !11, !range !13, !noundef !14
  %125 = trunc i8 %124 to i1
  %126 = zext i1 %125 to i8
  store i8 %126, ptr %7, align 1, !tbaa !11
  br label %127

127:                                              ; preds = %123
  br label %128

128:                                              ; preds = %127
  br label %129

129:                                              ; preds = %128
  store i32 -1, ptr %6, align 4, !tbaa !43
  br label %158

130:                                              ; No predecessors!
  br label %131

131:                                              ; preds = %130
  br label %132

132:                                              ; preds = %131
  br label %133

133:                                              ; preds = %132
  br label %134

134:                                              ; preds = %133, %108
  %135 = load ptr, ptr %5, align 8, !tbaa !119
  %136 = getelementptr inbounds nuw %struct.H5HF_indirect_t, ptr %135, i32 0, i32 4
  store ptr null, ptr %136, align 8, !tbaa !133
  br label %137

137:                                              ; preds = %134, %103
  br label %157

138:                                              ; preds = %67
  br label %139

139:                                              ; preds = %138
  br label %140

140:                                              ; preds = %139
  br label %141

141:                                              ; preds = %140
  %142 = load i64, ptr @H5E_ARGS_g, align 8, !tbaa !40
  %143 = load i64, ptr @H5E_BADVALUE_g, align 8, !tbaa !40
  %144 = call i32 (ptr, ptr, i32, i64, i64, ptr, ...) @H5E_printf_stack(ptr noundef @.str.4, ptr noundef @__func__.H5HF__cache_iblock_notify, i32 noundef 1434, i64 noundef %142, i64 noundef %143, ptr noundef @.str.33)
  br label %145

145:                                              ; preds = %141
  br label %146

146:                                              ; preds = %145
  store i8 1, ptr %7, align 1, !tbaa !11
  %147 = load i8, ptr %7, align 1, !tbaa !11, !range !13, !noundef !14
  %148 = trunc i8 %147 to i1
  %149 = zext i1 %148 to i8
  store i8 %149, ptr %7, align 1, !tbaa !11
  br label %150

150:                                              ; preds = %146
  br label %151

151:                                              ; preds = %150
  br label %152

152:                                              ; preds = %151
  store i32 -1, ptr %6, align 4, !tbaa !43
  br label %158

153:                                              ; No predecessors!
  br label %154

154:                                              ; preds = %153
  br label %155

155:                                              ; preds = %154
  br label %156

156:                                              ; preds = %155
  br label %157

157:                                              ; preds = %156, %137, %102, %101
  br label %158

158:                                              ; preds = %157, %152, %129, %95
  br label %159

159:                                              ; preds = %158, %17
  %160 = load i32, ptr %6, align 4, !tbaa !43
  call void @llvm.lifetime.end.p0(i64 1, ptr %7) #8
  call void @llvm.lifetime.end.p0(i64 4, ptr %6) #8
  call void @llvm.lifetime.end.p0(i64 8, ptr %5) #8
  ret i32 %160
}