; Function Attrs: nounwind uwtable
define internal range(i32 -1, 1) i32 @H5HF__cache_iblock_notify(i32 noundef %0, ptr noundef %1) #0 {
  %3 = load i8, ptr @H5HF_init_g, align 1, !tbaa !3, !range !7, !noundef !8
  %4 = trunc nuw i8 %3 to i1
  %5 = load i8, ptr @H5_libterm_g, align 1, !range !7
  %6 = trunc nuw i8 %5 to i1
  %7 = xor i1 %6, true
  %8 = select i1 %4, i1 true, i1 %7
  br i1 %8, label %9, label %35, !prof !9

9:                                                ; preds = %2
  switch i32 %0, label %31 [
    i32 0, label %10
    i32 1, label %10
    i32 2, label %35
    i32 4, label %35
    i32 5, label %35
    i32 6, label %35
    i32 7, label %35
    i32 8, label %35
    i32 9, label %35
    i32 3, label %20
  ]

10:                                               ; preds = %9, %9
  %11 = getelementptr inbounds nuw i8, ptr %1, i64 272
  %12 = load ptr, ptr %11, align 8, !tbaa !120
  %.not19 = icmp eq ptr %12, null
  br i1 %.not19, label %35, label %13

13:                                               ; preds = %10
  %14 = tail call i32 @H5AC_create_flush_dependency(ptr noundef nonnull %12, ptr noundef nonnull %1) #9
  %15 = icmp slt i32 %14, 0
  br i1 %15, label %16, label %35

16:                                               ; preds = %13
  %17 = load i64, ptr @H5E_HEAP_g, align 8, !tbaa !14
  %18 = load i64, ptr @H5E_CANTDEPEND_g, align 8, !tbaa !14
  %19 = tail call i32 (ptr, ptr, i32, i64, i64, ptr, ...) @H5E_printf_stack(ptr noundef nonnull @.str.4, ptr noundef nonnull @__func__.H5HF__cache_iblock_notify, i32 noundef 1411, i64 noundef %17, i64 noundef %18, ptr noundef nonnull @.str.31) #9
  br label %35

20:                                               ; preds = %9
  %21 = getelementptr inbounds nuw i8, ptr %1, i64 272
  %22 = load ptr, ptr %21, align 8, !tbaa !120
  %.not = icmp eq ptr %22, null
  br i1 %.not, label %35, label %23

23:                                               ; preds = %20
  %24 = tail call i32 @H5AC_destroy_flush_dependency(ptr noundef nonnull %22, ptr noundef nonnull %1) #9
  %25 = icmp slt i32 %24, 0
  br i1 %25, label %26, label %30

26:                                               ; preds = %23
  %27 = load i64, ptr @H5E_HEAP_g, align 8, !tbaa !14
  %28 = load i64, ptr @H5E_CANTUNDEPEND_g, align 8, !tbaa !14
  %29 = tail call i32 (ptr, ptr, i32, i64, i64, ptr, ...) @H5E_printf_stack(ptr noundef nonnull @.str.4, ptr noundef nonnull @__func__.H5HF__cache_iblock_notify, i32 noundef 1428, i64 noundef %27, i64 noundef %28, ptr noundef nonnull @.str.32) #9
  br label %35

30:                                               ; preds = %23
  store ptr null, ptr %21, align 8, !tbaa !120
  br label %35

31:                                               ; preds = %9
  %32 = load i64, ptr @H5E_ARGS_g, align 8, !tbaa !14
  %33 = load i64, ptr @H5E_BADVALUE_g, align 8, !tbaa !14
  %34 = tail call i32 (ptr, ptr, i32, i64, i64, ptr, ...) @H5E_printf_stack(ptr noundef nonnull @.str.4, ptr noundef nonnull @__func__.H5HF__cache_iblock_notify, i32 noundef 1434, i64 noundef %32, i64 noundef %33, ptr noundef nonnull @.str.33) #9
  br label %35

35:                                               ; preds = %16, %26, %31, %20, %30, %9, %9, %9, %9, %9, %9, %9, %10, %13, %2
  %.0 = phi i32 [ -1, %31 ], [ -1, %26 ], [ 0, %30 ], [ 0, %20 ], [ 0, %9 ], [ 0, %9 ], [ 0, %9 ], [ 0, %9 ], [ 0, %9 ], [ 0, %9 ], [ 0, %9 ], [ -1, %16 ], [ 0, %13 ], [ 0, %10 ], [ 0, %2 ]
  ret i32 %.0
}